target datalayout = "e-m:e-p270:32:32-p271:32:32-p272:64:64-i64:64-i128:128-f80:128-n8:16:32:64-S128"
target triple = "x86_64-pc-linux-gnu"

%struct.expert_field = type { i32, i32 }

@bp_payload_try_heur = internal global i8 0, align 1
@btsd_heur = internal global ptr null, align 8
@ei_sub_type_unknown = internal global %struct.expert_field zeroinitializer, align 4
@ei_sub_partial_decode = internal global %struct.expert_field zeroinitializer, align 4

; Function Attrs: null_pointer_is_valid sspstrong uwtable
define internal i32 @dissect_carried_data(ptr noundef %0, ptr noundef %1, ptr noundef %2, ptr noundef %3, ptr noundef %4, i1 noundef zeroext %5) #2 {
  %7 = alloca ptr, align 8
  %8 = alloca ptr, align 8
  %9 = alloca ptr, align 8
  %10 = alloca ptr, align 8
  %11 = alloca ptr, align 8
  %12 = alloca i8, align 1
  %13 = alloca i32, align 4
  %14 = alloca ptr, align 8
  store ptr %0, ptr %7, align 8
  store ptr %1, ptr %8, align 8
  store ptr %2, ptr %9, align 8
  store ptr %3, ptr %10, align 8
  store ptr %4, ptr %11, align 8
  %15 = zext i1 %5 to i8
  store i8 %15, ptr %12, align 1
  call void @llvm.lifetime.start.p0(i64 4, ptr %13) #18
  store i32 0, ptr %13, align 4
  %16 = load ptr, ptr %7, align 8
  %17 = icmp ne ptr %16, null
  br i1 %17, label %18, label %41

18:                                               ; preds = %6
  %19 = load ptr, ptr %7, align 8
  %20 = load ptr, ptr %9, align 8
  %21 = load ptr, ptr %10, align 8
  %22 = load ptr, ptr %11, align 8
  %23 = load ptr, ptr %8, align 8
  %24 = call i32 @call_dissector_only(ptr noundef %19, ptr noundef %20, ptr noundef %21, ptr noundef %22, ptr noundef %23)
  store i32 %24, ptr %13, align 4
  %25 = load i32, ptr %13, align 4
  %26 = icmp slt i32 %25, 0
  br i1 %26, label %35, label %27

27:                                               ; preds = %18
  %28 = load i32, ptr %13, align 4
  %29 = icmp sgt i32 %28, 0
  br i1 %29, label %30, label %40

30:                                               ; preds = %27
  %31 = load i32, ptr %13, align 4
  %32 = load ptr, ptr %9, align 8
  %33 = call i32 @tvb_reported_length(ptr noundef %32)
  %34 = icmp ult i32 %31, %33
  br i1 %34, label %35, label %40

35:                                               ; preds = %30, %18
  %36 = load ptr, ptr %10, align 8
  %37 = load ptr, ptr %11, align 8
  %38 = call ptr @proto_tree_get_parent(ptr noundef %37)
  %39 = call ptr @expert_add_info(ptr noundef %36, ptr noundef %38, ptr noundef @ei_sub_partial_decode)
  br label %40

40:                                               ; preds = %35, %30, %27
  br label %50

41:                                               ; preds = %6
  %42 = load i8, ptr %12, align 1, !range !11, !noundef !12
  %43 = trunc i8 %42 to i1
  br i1 %43, label %49, label %44

44:                                               ; preds = %41
  %45 = load ptr, ptr %10, align 8
  %46 = load ptr, ptr %11, align 8
  %47 = call ptr @proto_tree_get_parent(ptr noundef %46)
  %48 = call ptr @expert_add_info(ptr noundef %45, ptr noundef %47, ptr noundef @ei_sub_type_unknown)
  br label %49

49:                                               ; preds = %44, %41
  br label %50

50:                                               ; preds = %49, %40
  %51 = load i32, ptr %13, align 4
  %52 = icmp sle i32 %51, 0
  br i1 %52, label %53, label %67

53:                                               ; preds = %50
  %54 = load i8, ptr @bp_payload_try_heur, align 1, !range !11, !noundef !12
  %55 = trunc i8 %54 to i1
  br i1 %55, label %56, label %67

56:                                               ; preds = %53
  call void @llvm.lifetime.start.p0(i64 8, ptr %14) #18
  store ptr null, ptr %14, align 8
  %57 = load ptr, ptr @btsd_heur, align 8
  %58 = load ptr, ptr %9, align 8
  %59 = load ptr, ptr %10, align 8
  %60 = load ptr, ptr %11, align 8
  %61 = load ptr, ptr %8, align 8
  %62 = call zeroext i1 @dissector_try_heuristic(ptr noundef %57, ptr noundef %58, ptr noundef %59, ptr noundef %60, ptr noundef %14, ptr noundef %61)
  br i1 %62, label %63, label %66

63:                                               ; preds = %56
  %64 = load ptr, ptr %9, align 8
  %65 = call i32 @tvb_reported_length(ptr noundef %64)
  store i32 %65, ptr %13, align 4
  br label %66

66:                                               ; preds = %63, %56
  call void @llvm.lifetime.end.p0(i64 8, ptr %14) #18
  br label %67

67:                                               ; preds = %66, %53, %50
  %68 = load i32, ptr %13, align 4
  %69 = icmp eq i32 %68, 0
  br i1 %69, label %70, label %75

70:                                               ; preds = %67
  %71 = load ptr, ptr %9, align 8
  %72 = load ptr, ptr %10, align 8
  %73 = load ptr, ptr %11, align 8
  %74 = call i32 @call_data_dissector(ptr noundef %71, ptr noundef %72, ptr noundef %73)
  store i32 %74, ptr %13, align 4
  br label %75

75:                                               ; preds = %70, %67
  %76 = load i32, ptr %13, align 4
  call void @llvm.lifetime.end.p0(i64 4, ptr %13) #18
  ret i32 %76
}